target datalayout = "e-m:e-p270:32:32-p271:32:32-p272:64:64-i64:64-i128:128-f80:128-n8:16:32:64-S128"
target triple = "x86_64-pc-linux-gnu"

%union.pthread_mutex_t = type { %struct.__pthread_mutex_s }
%struct.__pthread_mutex_s = type { i32, i32, i32, i32, i32, i16, i16, %struct.__pthread_internal_list }
%struct.__pthread_internal_list = type { ptr, ptr }
%struct.pmix_tma = type { ptr, ptr, ptr, ptr, ptr, ptr, ptr, ptr }
%struct.pmix_thread_t = type { %struct.pmix_object_t, ptr, ptr, i64 }
%struct.pmix_object_t = type { %union.pthread_mutex_t, ptr, i32, %struct.pmix_tma }
%struct.timeval = type { i64, i64 }
%struct.pmix_list_t = type { %struct.pmix_object_t, %struct.pmix_list_item_t, i64 }
%struct.pmix_list_item_t = type { %struct.pmix_object_t, ptr, ptr, i32 }
%struct.prte_oob_base_t = type { i32, i32, i32, i32, i32, %struct.pmix_list_t, i32, %struct.pmix_list_t, i32, i32, i8, ptr, ptr, ptr, ptr, i8, ptr, ptr, ptr, ptr, %struct.pmix_list_t, ptr, i32, %struct.pmix_list_t, %struct.pmix_thread_t, i8, %struct.timeval, [2 x i32], i32, i32, i32, i32, i32 }

@.str.4 = private unnamed_addr constant [17 x i8] c"help-oob-tcp.txt\00", align 1
@.str.15 = private unnamed_addr constant [5 x i8] c"prte\00", align 1
@.str.16 = private unnamed_addr constant [11 x i8] c"peer_limit\00", align 1
@.str.17 = private unnamed_addr constant [78 x i8] c"Maximum number of peer connections to simultaneously maintain (-1 = infinite)\00", align 1
@.str.18 = private unnamed_addr constant [13 x i8] c"peer_retries\00", align 1
@.str.19 = private unnamed_addr constant [67 x i8] c"Number of times to try shutting down a connection before giving up\00", align 1
@.str.20 = private unnamed_addr constant [7 x i8] c"sndbuf\00", align 1
@.str.21 = private unnamed_addr constant [69 x i8] c"TCP socket send buffering size (in bytes, 0 => leave system default)\00", align 1
@.str.22 = private unnamed_addr constant [7 x i8] c"rcvbuf\00", align 1
@.str.23 = private unnamed_addr constant [72 x i8] c"TCP socket receive buffering size (in bytes, 0 => leave system default)\00", align 1
@static_port_string = internal global ptr null, align 8
@.str.24 = private unnamed_addr constant [18 x i8] c"static_ipv4_ports\00", align 1
@.str.25 = private unnamed_addr constant [42 x i8] c"Static ports for daemons and procs (IPv4)\00", align 1
@.str.26 = private unnamed_addr constant [3 x i8] c"-1\00", align 1
@prte_static_ports = external global i8, align 1
@dyn_port_string = internal global ptr null, align 8
@.str.27 = private unnamed_addr constant [19 x i8] c"dynamic_ipv4_ports\00", align 1
@.str.28 = private unnamed_addr constant [66 x i8] c"Range of ports to be dynamically used by daemons and procs (IPv4)\00", align 1
@.str.29 = private unnamed_addr constant [19 x i8] c"static-and-dynamic\00", align 1
@.str.30 = private unnamed_addr constant [20 x i8] c"disable_ipv4_family\00", align 1
@.str.31 = private unnamed_addr constant [28 x i8] c"Disable the IPv4 interfaces\00", align 1
@.str.32 = private unnamed_addr constant [15 x i8] c"keepalive_time\00", align 1
@.str.33 = private unnamed_addr constant [111 x i8] c"Idle time in seconds before starting to send keepalives (keepalive_time <= 0 disables keepalive functionality)\00", align 1
@.str.34 = private unnamed_addr constant [16 x i8] c"keepalive_intvl\00", align 1
@.str.35 = private unnamed_addr constant [113 x i8] c"Time between successive keepalive pings when peer has not responded, in seconds (ignored if keepalive_time <= 0)\00", align 1
@.str.36 = private unnamed_addr constant [17 x i8] c"keepalive_probes\00", align 1
@.str.37 = private unnamed_addr constant [96 x i8] c"Number of keepalives that can be missed before declaring error (ignored if keepalive_time <= 0)\00", align 1
@.str.38 = private unnamed_addr constant [12 x i8] c"retry_delay\00", align 1
@.str.39 = private unnamed_addr constant [61 x i8] c"Time (in sec) to wait before trying to connect to peer again\00", align 1
@.str.40 = private unnamed_addr constant [19 x i8] c"max_recon_attempts\00", align 1
@.str.41 = private unnamed_addr constant [81 x i8] c"Max number of times to attempt connection before giving up (-1 -> never give up)\00", align 1

; Function Attrs: nounwind uwtable
define i32 @prte_oob_register() #0 {
  %1 = alloca i32, align 4
  %2 = alloca ptr, align 8
  store i32 -1, ptr getelementptr inbounds nuw (%struct.prte_oob_base_t, ptr @prte_oob_base, i32 0, i32 6), align 8, !tbaa !103
  %3 = call i32 @pmix_mca_base_var_register(ptr noundef @.str.15, ptr noundef @.str.15, ptr noundef null, ptr noundef @.str.16, ptr noundef @.str.17, i32 noundef 0, ptr noundef getelementptr inbounds nuw (%struct.prte_oob_base_t, ptr @prte_oob_base, i32 0, i32 6))
  store i32 2, ptr getelementptr inbounds nuw (%struct.prte_oob_base_t, ptr @prte_oob_base, i32 0, i32 3), align 4, !tbaa !104
  %4 = call i32 @pmix_mca_base_var_register(ptr noundef @.str.15, ptr noundef @.str.15, ptr noundef null, ptr noundef @.str.18, ptr noundef @.str.19, i32 noundef 0, ptr noundef getelementptr inbounds nuw (%struct.prte_oob_base_t, ptr @prte_oob_base, i32 0, i32 3))
  store i32 0, ptr getelementptr inbounds nuw (%struct.prte_oob_base_t, ptr @prte_oob_base, i32 0, i32 8), align 8, !tbaa !105
  %5 = call i32 @pmix_mca_base_var_register(ptr noundef @.str.15, ptr noundef @.str.15, ptr noundef null, ptr noundef @.str.20, ptr noundef @.str.21, i32 noundef 0, ptr noundef getelementptr inbounds nuw (%struct.prte_oob_base_t, ptr @prte_oob_base, i32 0, i32 8))
  store i32 0, ptr getelementptr inbounds nuw (%struct.prte_oob_base_t, ptr @prte_oob_base, i32 0, i32 9), align 4, !tbaa !106
  %6 = call i32 @pmix_mca_base_var_register(ptr noundef @.str.15, ptr noundef @.str.15, ptr noundef null, ptr noundef @.str.22, ptr noundef @.str.23, i32 noundef 0, ptr noundef getelementptr inbounds nuw (%struct.prte_oob_base_t, ptr @prte_oob_base, i32 0, i32 9))
  store ptr null, ptr @static_port_string, align 8, !tbaa !43
  %7 = call i32 @pmix_mca_base_var_register(ptr noundef @.str.15, ptr noundef @.str.15, ptr noundef null, ptr noundef @.str.24, ptr noundef @.str.25, i32 noundef 5, ptr noundef @static_port_string)
  %8 = load ptr, ptr @static_port_string, align 8, !tbaa !43
  %9 = icmp ne ptr null, %8
  br i1 %9, label %10, label %20

10:                                               ; preds = %0
  %11 = load ptr, ptr @static_port_string, align 8, !tbaa !43
  call void @pmix_util_parse_range_options(ptr noundef %11, ptr noundef getelementptr inbounds nuw (%struct.prte_oob_base_t, ptr @prte_oob_base, i32 0, i32 11))
  %12 = load ptr, ptr getelementptr inbounds nuw (%struct.prte_oob_base_t, ptr @prte_oob_base, i32 0, i32 11), align 8, !tbaa !107
  %13 = getelementptr inbounds ptr, ptr %12, i64 0
  %14 = load ptr, ptr %13, align 8, !tbaa !43
  %15 = call i32 @strcmp(ptr noundef %14, ptr noundef @.str.26) #13
  %16 = icmp eq i32 0, %15
  br i1 %16, label %17, label %19

17:                                               ; preds = %10
  %18 = load ptr, ptr getelementptr inbounds nuw (%struct.prte_oob_base_t, ptr @prte_oob_base, i32 0, i32 11), align 8, !tbaa !107
  call void @PMIx_Argv_free(ptr noundef %18)
  store ptr null, ptr getelementptr inbounds nuw (%struct.prte_oob_base_t, ptr @prte_oob_base, i32 0, i32 11), align 8, !tbaa !107
  br label %19

19:                                               ; preds = %17, %10
  br label %21

20:                                               ; preds = %0
  store ptr null, ptr getelementptr inbounds nuw (%struct.prte_oob_base_t, ptr @prte_oob_base, i32 0, i32 11), align 8, !tbaa !107
  br label %21

21:                                               ; preds = %20, %19
  %22 = load ptr, ptr getelementptr inbounds nuw (%struct.prte_oob_base_t, ptr @prte_oob_base, i32 0, i32 11), align 8, !tbaa !107
  %23 = icmp ne ptr null, %22
  br i1 %23, label %27, label %24

24:                                               ; preds = %21
  %25 = load ptr, ptr getelementptr inbounds nuw (%struct.prte_oob_base_t, ptr @prte_oob_base, i32 0, i32 16), align 8, !tbaa !108
  %26 = icmp ne ptr null, %25
  br i1 %26, label %27, label %28

27:                                               ; preds = %24, %21
  store i8 1, ptr @prte_static_ports, align 1, !tbaa !8
  br label %28

28:                                               ; preds = %27, %24
  store ptr null, ptr @dyn_port_string, align 8, !tbaa !43
  %29 = call i32 @pmix_mca_base_var_register(ptr noundef @.str.15, ptr noundef @.str.15, ptr noundef null, ptr noundef @.str.27, ptr noundef @.str.28, i32 noundef 5, ptr noundef @dyn_port_string)
  %30 = load ptr, ptr @dyn_port_string, align 8, !tbaa !43
  %31 = icmp ne ptr null, %30
  br i1 %31, label %32, label %52

32:                                               ; preds = %28
  %33 = load i8, ptr @prte_static_ports, align 1, !tbaa !8, !range !53, !noundef !54
  %34 = trunc i8 %33 to i1
  br i1 %34, label %35, label %42

35:                                               ; preds = %32
  call void @llvm.lifetime.start.p0(i64 8, ptr %2) #12
  %36 = load ptr, ptr getelementptr inbounds nuw (%struct.prte_oob_base_t, ptr @prte_oob_base, i32 0, i32 11), align 8, !tbaa !107
  %37 = call ptr @PMIx_Argv_join(ptr noundef %36, i32 noundef 44)
  store ptr %37, ptr %2, align 8, !tbaa !43
  %38 = load ptr, ptr %2, align 8, !tbaa !43
  %39 = load ptr, ptr @dyn_port_string, align 8, !tbaa !43
  %40 = call i32 (ptr, ptr, i32, ...) @pmix_show_help(ptr noundef @.str.4, ptr noundef @.str.29, i32 noundef 1, ptr noundef %38, ptr noundef %39)
  %41 = load ptr, ptr %2, align 8, !tbaa !43
  call void @free(ptr noundef %41) #12
  store i32 -1, ptr %1, align 4
  call void @llvm.lifetime.end.p0(i64 8, ptr %2) #12
  br label %60

42:                                               ; preds = %32
  %43 = load ptr, ptr @dyn_port_string, align 8, !tbaa !43
  call void @pmix_util_parse_range_options(ptr noundef %43, ptr noundef getelementptr inbounds nuw (%struct.prte_oob_base_t, ptr @prte_oob_base, i32 0, i32 12))
  %44 = load ptr, ptr getelementptr inbounds nuw (%struct.prte_oob_base_t, ptr @prte_oob_base, i32 0, i32 12), align 8, !tbaa !109
  %45 = getelementptr inbounds ptr, ptr %44, i64 0
  %46 = load ptr, ptr %45, align 8, !tbaa !43
  %47 = call i32 @strcmp(ptr noundef %46, ptr noundef @.str.26) #13
  %48 = icmp eq i32 0, %47
  br i1 %48, label %49, label %51

49:                                               ; preds = %42
  %50 = load ptr, ptr getelementptr inbounds nuw (%struct.prte_oob_base_t, ptr @prte_oob_base, i32 0, i32 12), align 8, !tbaa !109
  call void @PMIx_Argv_free(ptr noundef %50)
  store ptr null, ptr getelementptr inbounds nuw (%struct.prte_oob_base_t, ptr @prte_oob_base, i32 0, i32 12), align 8, !tbaa !109
  br label %51

51:                                               ; preds = %49, %42
  br label %53

52:                                               ; preds = %28
  store ptr null, ptr getelementptr inbounds nuw (%struct.prte_oob_base_t, ptr @prte_oob_base, i32 0, i32 12), align 8, !tbaa !109
  br label %53

53:                                               ; preds = %52, %51
  store i8 0, ptr getelementptr inbounds nuw (%struct.prte_oob_base_t, ptr @prte_oob_base, i32 0, i32 10), align 8, !tbaa !110
  %54 = call i32 @pmix_mca_base_var_register(ptr noundef @.str.15, ptr noundef @.str.15, ptr noundef null, ptr noundef @.str.30, ptr noundef @.str.31, i32 noundef 7, ptr noundef getelementptr inbounds nuw (%struct.prte_oob_base_t, ptr @prte_oob_base, i32 0, i32 10))
  store i32 300, ptr getelementptr inbounds nuw (%struct.prte_oob_base_t, ptr @prte_oob_base, i32 0, i32 29), align 4, !tbaa !111
  %55 = call i32 @pmix_mca_base_var_register(ptr noundef @.str.15, ptr noundef @.str.15, ptr noundef null, ptr noundef @.str.32, ptr noundef @.str.33, i32 noundef 0, ptr noundef getelementptr inbounds nuw (%struct.prte_oob_base_t, ptr @prte_oob_base, i32 0, i32 29))
  store i32 20, ptr getelementptr inbounds nuw (%struct.prte_oob_base_t, ptr @prte_oob_base, i32 0, i32 30), align 8, !tbaa !112
  %56 = call i32 @pmix_mca_base_var_register(ptr noundef @.str.15, ptr noundef @.str.15, ptr noundef null, ptr noundef @.str.34, ptr noundef @.str.35, i32 noundef 0, ptr noundef getelementptr inbounds nuw (%struct.prte_oob_base_t, ptr @prte_oob_base, i32 0, i32 30))
  store i32 9, ptr getelementptr inbounds nuw (%struct.prte_oob_base_t, ptr @prte_oob_base, i32 0, i32 28), align 8, !tbaa !113
  %57 = call i32 @pmix_mca_base_var_register(ptr noundef @.str.15, ptr noundef @.str.15, ptr noundef null, ptr noundef @.str.36, ptr noundef @.str.37, i32 noundef 0, ptr noundef getelementptr inbounds nuw (%struct.prte_oob_base_t, ptr @prte_oob_base, i32 0, i32 28))
  store i32 0, ptr getelementptr inbounds nuw (%struct.prte_oob_base_t, ptr @prte_oob_base, i32 0, i32 31), align 4, !tbaa !114
  %58 = call i32 @pmix_mca_base_var_register(ptr noundef @.str.15, ptr noundef @.str.15, ptr noundef null, ptr noundef @.str.38, ptr noundef @.str.39, i32 noundef 0, ptr noundef getelementptr inbounds nuw (%struct.prte_oob_base_t, ptr @prte_oob_base, i32 0, i32 31))
  store i32 10, ptr getelementptr inbounds nuw (%struct.prte_oob_base_t, ptr @prte_oob_base, i32 0, i32 32), align 8, !tbaa !115
  %59 = call i32 @pmix_mca_base_var_register(ptr noundef @.str.15, ptr noundef @.str.15, ptr noundef null, ptr noundef @.str.40, ptr noundef @.str.41, i32 noundef 0, ptr noundef getelementptr inbounds nuw (%struct.prte_oob_base_t, ptr @prte_oob_base, i32 0, i32 32))
  store i32 0, ptr %1, align 4
  br label %60

60:                                               ; preds = %53, %35
  %61 = load i32, ptr %1, align 4
  ret i32 %61
}