; Function Attrs: nounwind uwtable
define range(i32 -1, 1) i32 @prte_oob_register() local_unnamed_addr #0 {
  store i32 -1, ptr getelementptr inbounds nuw (i8, ptr @prte_oob_base, i64 296), align 8, !tbaa !79
  %1 = tail call i32 @pmix_mca_base_var_register(ptr noundef nonnull @.str.15, ptr noundef nonnull @.str.15, ptr noundef null, ptr noundef nonnull @.str.16, ptr noundef nonnull @.str.17, i32 noundef 0, ptr noundef nonnull getelementptr inbounds nuw (i8, ptr @prte_oob_base, i64 296)) #16
  store i32 2, ptr getelementptr inbounds nuw (i8, ptr @prte_oob_base, i64 12), align 4, !tbaa !80
  %2 = tail call i32 @pmix_mca_base_var_register(ptr noundef nonnull @.str.15, ptr noundef nonnull @.str.15, ptr noundef null, ptr noundef nonnull @.str.18, ptr noundef nonnull @.str.19, i32 noundef 0, ptr noundef nonnull getelementptr inbounds nuw (i8, ptr @prte_oob_base, i64 12)) #16
  store i32 0, ptr getelementptr inbounds nuw (i8, ptr @prte_oob_base, i64 576), align 8, !tbaa !81
  %3 = tail call i32 @pmix_mca_base_var_register(ptr noundef nonnull @.str.15, ptr noundef nonnull @.str.15, ptr noundef null, ptr noundef nonnull @.str.20, ptr noundef nonnull @.str.21, i32 noundef 0, ptr noundef nonnull getelementptr inbounds nuw (i8, ptr @prte_oob_base, i64 576)) #16
  store i32 0, ptr getelementptr inbounds nuw (i8, ptr @prte_oob_base, i64 580), align 4, !tbaa !82
  %4 = tail call i32 @pmix_mca_base_var_register(ptr noundef nonnull @.str.15, ptr noundef nonnull @.str.15, ptr noundef null, ptr noundef nonnull @.str.22, ptr noundef nonnull @.str.23, i32 noundef 0, ptr noundef nonnull getelementptr inbounds nuw (i8, ptr @prte_oob_base, i64 580)) #16
  store ptr null, ptr @static_port_string, align 8, !tbaa !41
  %5 = tail call i32 @pmix_mca_base_var_register(ptr noundef nonnull @.str.15, ptr noundef nonnull @.str.15, ptr noundef null, ptr noundef nonnull @.str.24, ptr noundef nonnull @.str.25, i32 noundef 5, ptr noundef nonnull @static_port_string) #16
  %6 = load ptr, ptr @static_port_string, align 8, !tbaa !41
  %.not = icmp eq ptr %6, null
  br i1 %.not, label %16, label %sub_0

sub_0:                                            ; preds = %0
  tail call void @pmix_util_parse_range_options(ptr noundef nonnull %6, ptr noundef nonnull getelementptr inbounds nuw (i8, ptr @prte_oob_base, i64 592)) #16
  %7 = load ptr, ptr getelementptr inbounds nuw (i8, ptr @prte_oob_base, i64 592), align 8, !tbaa !83
  %8 = load ptr, ptr %7, align 8, !tbaa !41
  %9 = load i8, ptr %8, align 1
  %.not11 = icmp eq i8 %9, 45
  br i1 %.not11, label %sub_1, label %.thread

sub_1:                                            ; preds = %sub_0
  %10 = getelementptr inbounds nuw i8, ptr %8, i64 1
  %11 = load i8, ptr %10, align 1
  %.not12 = icmp eq i8 %11, 49
  br i1 %.not12, label %.tail, label %.thread

.tail:                                            ; preds = %sub_1
  %12 = getelementptr inbounds nuw i8, ptr %8, i64 2
  %13 = load i8, ptr %12, align 1
  %14 = icmp eq i8 %13, 0
  br i1 %14, label %15, label %.thread

15:                                               ; preds = %.tail
  tail call void @PMIx_Argv_free(ptr noundef nonnull %7) #16
  br label %16

16:                                               ; preds = %0, %15
  store ptr null, ptr getelementptr inbounds nuw (i8, ptr @prte_oob_base, i64 592), align 8, !tbaa !83
  %17 = load ptr, ptr getelementptr inbounds nuw (i8, ptr @prte_oob_base, i64 632), align 8
  %.not16 = icmp eq ptr %17, null
  br i1 %.not16, label %18, label %.thread

.thread:                                          ; preds = %sub_1, %sub_0, %.tail, %16
  store i8 1, ptr @prte_static_ports, align 1, !tbaa !84
  br label %18

18:                                               ; preds = %16, %.thread
  store ptr null, ptr @dyn_port_string, align 8, !tbaa !41
  %19 = tail call i32 @pmix_mca_base_var_register(ptr noundef nonnull @.str.15, ptr noundef nonnull @.str.15, ptr noundef null, ptr noundef nonnull @.str.27, ptr noundef nonnull @.str.28, i32 noundef 5, ptr noundef nonnull @dyn_port_string) #16
  %20 = load ptr, ptr @dyn_port_string, align 8, !tbaa !41
  %.not5 = icmp eq ptr %20, null
  br i1 %.not5, label %.tail6.thread.sink.split, label %21

21:                                               ; preds = %18
  %22 = load i8, ptr @prte_static_ports, align 1, !tbaa !84, !range !85, !noundef !86
  %23 = trunc nuw i8 %22 to i1
  br i1 %23, label %24, label %sub_07

24:                                               ; preds = %21
  %25 = load ptr, ptr getelementptr inbounds nuw (i8, ptr @prte_oob_base, i64 592), align 8, !tbaa !83
  %26 = tail call ptr @PMIx_Argv_join(ptr noundef %25, i32 noundef 44) #16
  %27 = load ptr, ptr @dyn_port_string, align 8, !tbaa !41
  %28 = tail call i32 (ptr, ptr, i32, ...) @pmix_show_help(ptr noundef nonnull @.str.4, ptr noundef nonnull @.str.29, i32 noundef 1, ptr noundef %26, ptr noundef %27) #16
  tail call void @free(ptr noundef %26) #16
  br label %44

sub_07:                                           ; preds = %21
  tail call void @pmix_util_parse_range_options(ptr noundef nonnull %20, ptr noundef nonnull getelementptr inbounds nuw (i8, ptr @prte_oob_base, i64 600)) #16
  %29 = load ptr, ptr getelementptr inbounds nuw (i8, ptr @prte_oob_base, i64 600), align 8, !tbaa !87
  %30 = load ptr, ptr %29, align 8, !tbaa !41
  %31 = load i8, ptr %30, align 1
  %.not13 = icmp eq i8 %31, 45
  br i1 %.not13, label %sub_18, label %.tail6.thread

sub_18:                                           ; preds = %sub_07
  %32 = getelementptr inbounds nuw i8, ptr %30, i64 1
  %33 = load i8, ptr %32, align 1
  %.not14 = icmp eq i8 %33, 49
  br i1 %.not14, label %.tail6, label %.tail6.thread

.tail6:                                           ; preds = %sub_18
  %34 = getelementptr inbounds nuw i8, ptr %30, i64 2
  %35 = load i8, ptr %34, align 1
  %36 = icmp eq i8 %35, 0
  br i1 %36, label %37, label %.tail6.thread

37:                                               ; preds = %.tail6
  tail call void @PMIx_Argv_free(ptr noundef nonnull %29) #16
  br label %.tail6.thread.sink.split

.tail6.thread.sink.split:                         ; preds = %18, %37
  store ptr null, ptr getelementptr inbounds nuw (i8, ptr @prte_oob_base, i64 600), align 8, !tbaa !87
  br label %.tail6.thread

.tail6.thread:                                    ; preds = %.tail6.thread.sink.split, %sub_18, %sub_07, %.tail6
  store i8 0, ptr getelementptr inbounds nuw (i8, ptr @prte_oob_base, i64 584), align 8, !tbaa !88
  %38 = tail call i32 @pmix_mca_base_var_register(ptr noundef nonnull @.str.15, ptr noundef nonnull @.str.15, ptr noundef null, ptr noundef nonnull @.str.30, ptr noundef nonnull @.str.31, i32 noundef 7, ptr noundef nonnull getelementptr inbounds nuw (i8, ptr @prte_oob_base, i64 584)) #16
  store i32 300, ptr getelementptr inbounds nuw (i8, ptr @prte_oob_base, i64 1404), align 4, !tbaa !89
  %39 = tail call i32 @pmix_mca_base_var_register(ptr noundef nonnull @.str.15, ptr noundef nonnull @.str.15, ptr noundef null, ptr noundef nonnull @.str.32, ptr noundef nonnull @.str.33, i32 noundef 0, ptr noundef nonnull getelementptr inbounds nuw (i8, ptr @prte_oob_base, i64 1404)) #16
  store i32 20, ptr getelementptr inbounds nuw (i8, ptr @prte_oob_base, i64 1408), align 8, !tbaa !90
  %40 = tail call i32 @pmix_mca_base_var_register(ptr noundef nonnull @.str.15, ptr noundef nonnull @.str.15, ptr noundef null, ptr noundef nonnull @.str.34, ptr noundef nonnull @.str.35, i32 noundef 0, ptr noundef nonnull getelementptr inbounds nuw (i8, ptr @prte_oob_base, i64 1408)) #16
  store i32 9, ptr getelementptr inbounds nuw (i8, ptr @prte_oob_base, i64 1400), align 8, !tbaa !91
  %41 = tail call i32 @pmix_mca_base_var_register(ptr noundef nonnull @.str.15, ptr noundef nonnull @.str.15, ptr noundef null, ptr noundef nonnull @.str.36, ptr noundef nonnull @.str.37, i32 noundef 0, ptr noundef nonnull getelementptr inbounds nuw (i8, ptr @prte_oob_base, i64 1400)) #16
  store i32 0, ptr getelementptr inbounds nuw (i8, ptr @prte_oob_base, i64 1412), align 4, !tbaa !92
  %42 = tail call i32 @pmix_mca_base_var_register(ptr noundef nonnull @.str.15, ptr noundef nonnull @.str.15, ptr noundef null, ptr noundef nonnull @.str.38, ptr noundef nonnull @.str.39, i32 noundef 0, ptr noundef nonnull getelementptr inbounds nuw (i8, ptr @prte_oob_base, i64 1412)) #16
  store i32 10, ptr getelementptr inbounds nuw (i8, ptr @prte_oob_base, i64 1416), align 8, !tbaa !93
  %43 = tail call i32 @pmix_mca_base_var_register(ptr noundef nonnull @.str.15, ptr noundef nonnull @.str.15, ptr noundef null, ptr noundef nonnull @.str.40, ptr noundef nonnull @.str.41, i32 noundef 0, ptr noundef nonnull getelementptr inbounds nuw (i8, ptr @prte_oob_base, i64 1416)) #16
  br label %44

44:                                               ; preds = %.tail6.thread, %24
  %.0 = phi i32 [ -1, %24 ], [ 0, %.tail6.thread ]
  ret i32 %.0
}